; Function Attrs: mustprogress nounwind uwtable
define void @_ZN6colvar8coordnumD2Ev(ptr noundef nonnull align 8 dereferenceable(1696) initializes((0, 8), (320, 328)) %0) unnamed_addr #1 align 2 {
  store ptr getelementptr inbounds nuw inrange(-16, 216) (i8, ptr @_ZTVN6colvar8coordnumE, i64 16), ptr %0, align 8, !tbaa !161
  %2 = getelementptr inbounds nuw i8, ptr %0, i64 320
  store ptr getelementptr inbounds nuw inrange(-16, 48) (i8, ptr @_ZTVN6colvar8coordnumE, i64 248), ptr %2, align 8, !tbaa !161
  %3 = getelementptr inbounds nuw i8, ptr %0, i64 1688
  %4 = load ptr, ptr %3, align 8, !tbaa !153
  %.not = icmp eq ptr %4, null
  br i1 %.not, label %6, label %5

5:                                                ; preds = %1
  tail call void @_ZdaPv(ptr noundef nonnull %4) #18
  br label %6

6:                                                ; preds = %5, %1
  tail call void @_ZN6colvar3cvcD2Ev(ptr noundef nonnull align 8 dereferenceable(1608) %0) #17
  ret void
}